; ModuleID = '33/2212.c'
source_filename = "33/2212.c"
target datalayout = "e-m:e-p270:32:32-p271:32:32-p272:64:64-i64:64-f80:128-n8:16:32:64-S128"
target triple = "x86_64-pc-linux-gnu"

@.str = private unnamed_addr constant [3 x i8] c"%d\00", align 1
@.str.1 = private unnamed_addr constant [3 x i8] c"%s\00", align 1
@.str.2 = private unnamed_addr constant [4 x i8] c"%s\0A\00", align 1

; Function Attrs: noinline nounwind uwtable
define dso_local i32 @main() #0 {
  %1 = alloca i32, align 4
  %2 = alloca i32, align 4
  %3 = alloca i32, align 4
  %4 = alloca i32, align 4
  %5 = alloca [2000 x [256 x i8]], align 16
  %6 = alloca i32, align 4
  %7 = alloca i32, align 4
  %8 = alloca i32, align 4
  %9 = alloca i32, align 4
  %10 = alloca i32, align 4
  %11 = alloca i32, align 4
  %12 = alloca double, align 8
  store i32 0, i32* %1, align 4
  store i32 0, i32* %8, align 4
  store i32 0, i32* %9, align 4
  store i32 0, i32* %10, align 4
  store i32 0, i32* %11, align 4
  store double 0.000000e+00, double* %12, align 8
  %13 = call i32 (i8*, ...) @__isoc99_scanf(i8* getelementptr inbounds ([3 x i8], [3 x i8]* @.str, i64 0, i64 0), i32* %4)
  store i32 1, i32* %6, align 4
  br label %14

14:                                               ; preds = %107, %0
  %15 = load i32, i32* %6, align 4
  %16 = load i32, i32* %4, align 4
  %17 = icmp sle i32 %15, %16
  br i1 %17, label %18, label %110

18:                                               ; preds = %14
  %19 = load i32, i32* %6, align 4
  %20 = sext i32 %19 to i64
  %21 = getelementptr inbounds [2000 x [256 x i8]], [2000 x [256 x i8]]* %5, i64 0, i64 %20
  %22 = getelementptr inbounds [256 x i8], [256 x i8]* %21, i64 0, i64 0
  %23 = call i32 (i8*, ...) @__isoc99_scanf(i8* getelementptr inbounds ([3 x i8], [3 x i8]* @.str.1, i64 0, i64 0), i8* %22)
  %24 = load i32, i32* %6, align 4
  %25 = sext i32 %24 to i64
  %26 = getelementptr inbounds [2000 x [256 x i8]], [2000 x [256 x i8]]* %5, i64 0, i64 %25
  %27 = getelementptr inbounds [256 x i8], [256 x i8]* %26, i64 0, i64 0
  %28 = call i64 @strlen(i8* %27) #3
  %29 = trunc i64 %28 to i32
  store i32 %29, i32* %3, align 4
  store i32 0, i32* %7, align 4
  br label %30

30:                                               ; preds = %103, %18
  %31 = load i32, i32* %7, align 4
  %32 = load i32, i32* %3, align 4
  %33 = icmp sle i32 %31, %32
  br i1 %33, label %34, label %106

34:                                               ; preds = %30
  %35 = load i32, i32* %6, align 4
  %36 = sext i32 %35 to i64
  %37 = getelementptr inbounds [2000 x [256 x i8]], [2000 x [256 x i8]]* %5, i64 0, i64 %36
  %38 = load i32, i32* %7, align 4
  %39 = sext i32 %38 to i64
  %40 = getelementptr inbounds [256 x i8], [256 x i8]* %37, i64 0, i64 %39
  %41 = load i8, i8* %40, align 1
  %42 = sext i8 %41 to i32
  %43 = icmp eq i32 %42, 65
  br i1 %43, label %44, label %51

44:                                               ; preds = %34
  %45 = load i32, i32* %6, align 4
  %46 = sext i32 %45 to i64
  %47 = getelementptr inbounds [2000 x [256 x i8]], [2000 x [256 x i8]]* %5, i64 0, i64 %46
  %48 = load i32, i32* %7, align 4
  %49 = sext i32 %48 to i64
  %50 = getelementptr inbounds [256 x i8], [256 x i8]* %47, i64 0, i64 %49
  store i8 84, i8* %50, align 1
  br label %103

51:                                               ; preds = %34
  %52 = load i32, i32* %6, align 4
  %53 = sext i32 %52 to i64
  %54 = getelementptr inbounds [2000 x [256 x i8]], [2000 x [256 x i8]]* %5, i64 0, i64 %53
  %55 = load i32, i32* %7, align 4
  %56 = sext i32 %55 to i64
  %57 = getelementptr inbounds [256 x i8], [256 x i8]* %54, i64 0, i64 %56
  %58 = load i8, i8* %57, align 1
  %59 = sext i8 %58 to i32
  %60 = icmp eq i32 %59, 84
  br i1 %60, label %61, label %68

61:                                               ; preds = %51
  %62 = load i32, i32* %6, align 4
  %63 = sext i32 %62 to i64
  %64 = getelementptr inbounds [2000 x [256 x i8]], [2000 x [256 x i8]]* %5, i64 0, i64 %63
  %65 = load i32, i32* %7, align 4
  %66 = sext i32 %65 to i64
  %67 = getelementptr inbounds [256 x i8], [256 x i8]* %64, i64 0, i64 %66
  store i8 65, i8* %67, align 1
  br label %103

68:                                               ; preds = %51
  %69 = load i32, i32* %6, align 4
  %70 = sext i32 %69 to i64
  %71 = getelementptr inbounds [2000 x [256 x i8]], [2000 x [256 x i8]]* %5, i64 0, i64 %70
  %72 = load i32, i32* %7, align 4
  %73 = sext i32 %72 to i64
  %74 = getelementptr inbounds [256 x i8], [256 x i8]* %71, i64 0, i64 %73
  %75 = load i8, i8* %74, align 1
  %76 = sext i8 %75 to i32
  %77 = icmp eq i32 %76, 67
  br i1 %77, label %78, label %85

78:                                               ; preds = %68
  %79 = load i32, i32* %6, align 4
  %80 = sext i32 %79 to i64
  %81 = getelementptr inbounds [2000 x [256 x i8]], [2000 x [256 x i8]]* %5, i64 0, i64 %80
  %82 = load i32, i32* %7, align 4
  %83 = sext i32 %82 to i64
  %84 = getelementptr inbounds [256 x i8], [256 x i8]* %81, i64 0, i64 %83
  store i8 71, i8* %84, align 1
  br label %103

85:                                               ; preds = %68
  %86 = load i32, i32* %6, align 4
  %87 = sext i32 %86 to i64
  %88 = getelementptr inbounds [2000 x [256 x i8]], [2000 x [256 x i8]]* %5, i64 0, i64 %87
  %89 = load i32, i32* %7, align 4
  %90 = sext i32 %89 to i64
  %91 = getelementptr inbounds [256 x i8], [256 x i8]* %88, i64 0, i64 %90
  %92 = load i8, i8* %91, align 1
  %93 = sext i8 %92 to i32
  %94 = icmp eq i32 %93, 71
  br i1 %94, label %95, label %102

95:                                               ; preds = %85
  %96 = load i32, i32* %6, align 4
  %97 = sext i32 %96 to i64
  %98 = getelementptr inbounds [2000 x [256 x i8]], [2000 x [256 x i8]]* %5, i64 0, i64 %97
  %99 = load i32, i32* %7, align 4
  %100 = sext i32 %99 to i64
  %101 = getelementptr inbounds [256 x i8], [256 x i8]* %98, i64 0, i64 %100
  store i8 67, i8* %101, align 1
  br label %103

102:                                              ; preds = %85
  br label %103

103:                                              ; preds = %102, %95, %78, %61, %44
  %104 = load i32, i32* %7, align 4
  %105 = add nsw i32 %104, 1
  store i32 %105, i32* %7, align 4
  br label %30

106:                                              ; preds = %30
  br label %107

107:                                              ; preds = %106
  %108 = load i32, i32* %6, align 4
  %109 = add nsw i32 %108, 1
  store i32 %109, i32* %6, align 4
  br label %14

110:                                              ; preds = %14
  store i32 1, i32* %6, align 4
  br label %111

111:                                              ; preds = %121, %110
  %112 = load i32, i32* %6, align 4
  %113 = load i32, i32* %4, align 4
  %114 = icmp sle i32 %112, %113
  br i1 %114, label %115, label %124

115:                                              ; preds = %111
  %116 = load i32, i32* %6, align 4
  %117 = sext i32 %116 to i64
  %118 = getelementptr inbounds [2000 x [256 x i8]], [2000 x [256 x i8]]* %5, i64 0, i64 %117
  %119 = getelementptr inbounds [256 x i8], [256 x i8]* %118, i64 0, i64 0
  %120 = call i32 (i8*, ...) @printf(i8* getelementptr inbounds ([4 x i8], [4 x i8]* @.str.2, i64 0, i64 0), i8* %119)
  br label %121

121:                                              ; preds = %115
  %122 = load i32, i32* %6, align 4
  %123 = add nsw i32 %122, 1
  store i32 %123, i32* %6, align 4
  br label %111

124:                                              ; preds = %111
  ret i32 0
}

declare dso_local i32 @__isoc99_scanf(i8*, ...) #1

; Function Attrs: nounwind readonly
declare dso_local i64 @strlen(i8*) #2

declare dso_local i32 @printf(i8*, ...) #1


!llvm.module.flags = !{!0}
!llvm.ident = !{!1}

!0 = !{i32 1, !"wchar_size", i32 4}
!1 = !{!"clang version 10.0.0-4ubuntu1 "}
